; Function Attrs: nounwind sspstrong uwtable
define internal fastcc i64 @new_enum_chain(i64 noundef %0) unnamed_addr #0 {
  %2 = load i64, ptr @rb_cEnumChain, align 8, !tbaa !7
  %3 = tail call i64 @rb_data_typed_object_zalloc(i64 noundef %2, i64 noundef 16, ptr noundef nonnull @enum_chain_data_type) #18
  %4 = inttoptr i64 %3 to ptr
  %5 = getelementptr inbounds nuw i8, ptr %4, i64 24
  %6 = load i64, ptr %5, align 8, !tbaa !11
  %7 = and i64 %6, 2
  %.not.i.i = icmp eq i64 %7, 0
  %8 = getelementptr i8, ptr %4, i64 32
  br i1 %.not.i.i, label %9, label %enum_chain_allocate.exit

9:                                                ; preds = %1
  %10 = load ptr, ptr %8, align 8, !tbaa !16
  br label %enum_chain_allocate.exit

enum_chain_allocate.exit:                         ; preds = %1, %9
  %11 = phi ptr [ %10, %9 ], [ %8, %1 ]
  store i64 36, ptr %11, align 8, !tbaa !62
  %12 = getelementptr inbounds nuw i8, ptr %11, i64 8
  store i64 -1, ptr %12, align 8, !tbaa !64
  %13 = tail call i64 @enum_chain_initialize(i64 noundef %3, i64 noundef %0)
  %14 = inttoptr i64 %0 to ptr
  %15 = getelementptr inbounds nuw i8, ptr %14, i64 16
  %16 = getelementptr inbounds nuw i8, ptr %14, i64 32
  br label %17

17:                                               ; preds = %RARRAY_AREF.exit, %enum_chain_allocate.exit
  %.09 = phi i64 [ 0, %enum_chain_allocate.exit ], [ %32, %RARRAY_AREF.exit ]
  %18 = load i64, ptr %14, align 8, !tbaa !21
  %19 = and i64 %18, 8192
  %.not.i = icmp eq i64 %19, 0
  br i1 %.not.i, label %rb_array_len.exit, label %rb_array_len.exit.thread

rb_array_len.exit:                                ; preds = %17
  %20 = load i64, ptr %15, align 8, !tbaa !44
  %21 = icmp slt i64 %.09, %20
  br i1 %21, label %25, label %.loopexit

rb_array_len.exit.thread:                         ; preds = %17
  %22 = lshr i64 %18, 15
  %23 = and i64 %22, 127
  %24 = icmp samesign ult i64 %.09, %23
  br i1 %24, label %RARRAY_AREF.exit, label %.loopexit

25:                                               ; preds = %rb_array_len.exit
  %26 = load ptr, ptr %16, align 8, !tbaa !44
  br label %RARRAY_AREF.exit

RARRAY_AREF.exit:                                 ; preds = %rb_array_len.exit.thread, %25
  %.0.i.i = phi ptr [ %26, %25 ], [ %15, %rb_array_len.exit.thread ]
  %27 = getelementptr i64, ptr %.0.i.i, i64 %.09
  %28 = load i64, ptr %27, align 8, !tbaa !7
  %29 = load i64, ptr @rb_cLazy, align 8, !tbaa !7
  %30 = tail call i64 @rb_obj_is_kind_of(i64 noundef %28, i64 noundef %29) #18
  %31 = and i64 %30, -5
  %.not = icmp eq i64 %31, 0
  %32 = add nuw nsw i64 %.09, 1
  br i1 %.not, label %17, label %33, !llvm.loop !101

33:                                               ; preds = %RARRAY_AREF.exit
  %34 = load i64, ptr @sym_each, align 8, !tbaa !7
  %35 = tail call i32 @rb_keyword_given_p() #18
  %36 = load i64, ptr @rb_cLazy, align 8, !tbaa !7
  %37 = tail call i64 @rb_data_typed_object_zalloc(i64 noundef %36, i64 noundef 96, ptr noundef nonnull @enumerator_data_type) #18
  %38 = inttoptr i64 %37 to ptr
  %39 = getelementptr inbounds nuw i8, ptr %38, i64 24
  %40 = load i64, ptr %39, align 8, !tbaa !11
  %41 = and i64 %40, 2
  %.not.i.i.i.i = icmp eq i64 %41, 0
  %42 = getelementptr i8, ptr %38, i64 32
  br i1 %.not.i.i.i.i, label %43, label %enumerable_lazy.exit

43:                                               ; preds = %33
  %44 = load ptr, ptr %42, align 8, !tbaa !16
  br label %enumerable_lazy.exit

enumerable_lazy.exit:                             ; preds = %33, %43
  %45 = phi ptr [ %44, %43 ], [ %42, %33 ]
  store i64 36, ptr %45, align 8, !tbaa !17
  %46 = tail call fastcc i64 @enumerator_init(i64 noundef %37, i64 noundef %3, i64 noundef %34, i32 noundef 0, ptr noundef null, ptr noundef nonnull @lazyenum_size, i64 noundef 4, i32 noundef %35)
  %47 = load i64, ptr @id_method, align 8, !tbaa !7
  %48 = tail call i64 @rb_ivar_set(i64 noundef %37, i64 noundef %47, i64 noundef 0) #18
  br label %.loopexit

.loopexit:                                        ; preds = %rb_array_len.exit.thread, %rb_array_len.exit, %enumerable_lazy.exit
  %.0 = phi i64 [ %37, %enumerable_lazy.exit ], [ %3, %rb_array_len.exit ], [ %3, %rb_array_len.exit.thread ]
  ret i64 %.0
}